target datalayout = "e-m:e-p270:32:32-p271:32:32-p272:64:64-i64:64-i128:128-f80:128-n8:16:32:64-S128"
target triple = "x86_64-pc-linux-gnu"

%"class.sat::elim_vars" = type { ptr, ptr, %"class.dd::bdd_manager", %class.random_gen, %class.svector.2, %class.svector.2, i32, %class.svector.2, %class.svector.2, i32, i32, i32, i32 }
%"class.dd::bdd_manager" = type { i32, %class.svector, %class.ptr_hashtable, %class.hashtable, %class.svector.2, %class.svector.2, ptr, %class.svector.2, %class.svector.2, %class.svector.2, %class.svector.2, %class.small_object_allocator, %class.svector.2, i32, %class.svector.4, %class.svector.2, i8, i8, i32, %class.svector.2, %class.svector.2, %class.svector.2, %class.vector.6, %class.svector.2, i32, i32 }
%class.svector = type { %class.vector }
%class.vector = type { ptr }
%class.ptr_hashtable = type { %class.core_hashtable.base, [4 x i8] }
%class.core_hashtable.base = type <{ ptr, i32, i32, i32 }>
%class.hashtable = type { %class.core_hashtable.base.1, [4 x i8] }
%class.core_hashtable.base.1 = type <{ ptr, i32, i32, i32 }>
%class.small_object_allocator = type { [32 x ptr], [32 x ptr], i64 }
%class.svector.4 = type { %class.vector.5 }
%class.vector.5 = type { ptr }
%class.vector.6 = type { ptr }
%class.random_gen = type { i32 }
%class.svector.2 = type { %class.vector.3 }
%class.vector.3 = type { ptr }

; Function Attrs: mustprogress uwtable
define linkonce_odr hidden noundef nonnull align 8 dereferenceable(8) ptr @_ZN6vectorIjLb0EjE9push_backERKj(ptr noundef nonnull align 8 dereferenceable(8) %0, ptr noundef nonnull align 4 dereferenceable(4) %1) #4 comdat align 2 {
  %3 = alloca ptr, align 8
  %4 = alloca ptr, align 8
  store ptr %0, ptr %3, align 8, !tbaa !237
  store ptr %1, ptr %4, align 8, !tbaa !102
  %5 = load ptr, ptr %3, align 8
  %6 = getelementptr inbounds nuw %class.vector.3, ptr %5, i32 0, i32 0
  %7 = load ptr, ptr %6, align 8, !tbaa !239
  %8 = icmp eq ptr %7, null
  br i1 %8, label %19, label %9

9:                                                ; preds = %2
  %10 = getelementptr inbounds nuw %class.vector.3, ptr %5, i32 0, i32 0
  %11 = load ptr, ptr %10, align 8, !tbaa !239
  %12 = getelementptr inbounds i32, ptr %11, i64 -1
  %13 = load i32, ptr %12, align 4, !tbaa !73
  %14 = getelementptr inbounds nuw %class.vector.3, ptr %5, i32 0, i32 0
  %15 = load ptr, ptr %14, align 8, !tbaa !239
  %16 = getelementptr inbounds i32, ptr %15, i64 -2
  %17 = load i32, ptr %16, align 4, !tbaa !73
  %18 = icmp eq i32 %13, %17
  br i1 %18, label %19, label %20

19:                                               ; preds = %9, %2
  call void @_ZN6vectorIjLb0EjE13expand_vectorEv(ptr noundef nonnull align 8 dereferenceable(8) %5)
  br label %20

20:                                               ; preds = %19, %9
  %21 = getelementptr inbounds nuw %class.vector.3, ptr %5, i32 0, i32 0
  %22 = load ptr, ptr %21, align 8, !tbaa !239
  %23 = getelementptr inbounds nuw %class.vector.3, ptr %5, i32 0, i32 0
  %24 = load ptr, ptr %23, align 8, !tbaa !239
  %25 = getelementptr inbounds i32, ptr %24, i64 -1
  %26 = load i32, ptr %25, align 4, !tbaa !73
  %27 = zext i32 %26 to i64
  %28 = getelementptr inbounds nuw i32, ptr %22, i64 %27
  %29 = load ptr, ptr %4, align 8, !tbaa !102
  %30 = load i32, ptr %29, align 4, !tbaa !73
  store i32 %30, ptr %28, align 4, !tbaa !73
  %31 = getelementptr inbounds nuw %class.vector.3, ptr %5, i32 0, i32 0
  %32 = load ptr, ptr %31, align 8, !tbaa !239
  %33 = getelementptr inbounds i32, ptr %32, i64 -1
  %34 = load i32, ptr %33, align 4, !tbaa !73
  %35 = add i32 %34, 1
  store i32 %35, ptr %33, align 4, !tbaa !73
  ret ptr %5
}

; Function Attrs: mustprogress nounwind uwtable
define linkonce_odr hidden noundef nonnull align 4 dereferenceable(4) ptr @_ZN6vectorIjLb0EjEixEj(ptr noundef nonnull align 8 dereferenceable(8) %0, i32 noundef %1) #5 comdat align 2 {
  %3 = alloca ptr, align 8
  %4 = alloca i32, align 4
  store ptr %0, ptr %3, align 8, !tbaa !237
  store i32 %1, ptr %4, align 4, !tbaa !73
  %5 = load ptr, ptr %3, align 8
  %6 = getelementptr inbounds nuw %class.vector.3, ptr %5, i32 0, i32 0
  %7 = load ptr, ptr %6, align 8, !tbaa !239
  %8 = load i32, ptr %4, align 4, !tbaa !73
  %9 = zext i32 %8 to i64
  %10 = getelementptr inbounds nuw i32, ptr %7, i64 %9
  ret ptr %10
}

; Function Attrs: mustprogress uwtable
define hidden void @_ZN3sat9elim_vars8mark_varEj(ptr noundef nonnull align 8 dereferenceable(808) %0, i32 noundef %1) #4 align 2 {
  %3 = alloca ptr, align 8
  %4 = alloca i32, align 4
  store ptr %0, ptr %3, align 8, !tbaa !3
  store i32 %1, ptr %4, align 4, !tbaa !73
  %5 = load ptr, ptr %3, align 8
  %6 = getelementptr inbounds nuw %"class.sat::elim_vars", ptr %5, i32 0, i32 5
  %7 = load i32, ptr %4, align 4, !tbaa !73
  %8 = call noundef nonnull align 4 dereferenceable(4) ptr @_ZN6vectorIjLb0EjEixEj(ptr noundef nonnull align 8 dereferenceable(8) %6, i32 noundef %7)
  %9 = load i32, ptr %8, align 4, !tbaa !73
  %10 = getelementptr inbounds nuw %"class.sat::elim_vars", ptr %5, i32 0, i32 6
  %11 = load i32, ptr %10, align 8, !tbaa !45
  %12 = icmp ne i32 %9, %11
  br i1 %12, label %13, label %24

13:                                               ; preds = %2
  %14 = getelementptr inbounds nuw %"class.sat::elim_vars", ptr %5, i32 0, i32 6
  %15 = load i32, ptr %14, align 8, !tbaa !45
  %16 = getelementptr inbounds nuw %"class.sat::elim_vars", ptr %5, i32 0, i32 5
  %17 = load i32, ptr %4, align 4, !tbaa !73
  %18 = call noundef nonnull align 4 dereferenceable(4) ptr @_ZN6vectorIjLb0EjEixEj(ptr noundef nonnull align 8 dereferenceable(8) %16, i32 noundef %17)
  store i32 %15, ptr %18, align 4, !tbaa !73
  %19 = getelementptr inbounds nuw %"class.sat::elim_vars", ptr %5, i32 0, i32 4
  %20 = call noundef nonnull align 8 dereferenceable(8) ptr @_ZN6vectorIjLb0EjE9push_backERKj(ptr noundef nonnull align 8 dereferenceable(8) %19, ptr noundef nonnull align 4 dereferenceable(4) %4)
  %21 = getelementptr inbounds nuw %"class.sat::elim_vars", ptr %5, i32 0, i32 8
  %22 = load i32, ptr %4, align 4, !tbaa !73
  %23 = call noundef nonnull align 4 dereferenceable(4) ptr @_ZN6vectorIjLb0EjEixEj(ptr noundef nonnull align 8 dereferenceable(8) %21, i32 noundef %22)
  store i32 1, ptr %23, align 4, !tbaa !73
  br label %30

24:                                               ; preds = %2
  %25 = getelementptr inbounds nuw %"class.sat::elim_vars", ptr %5, i32 0, i32 8
  %26 = load i32, ptr %4, align 4, !tbaa !73
  %27 = call noundef nonnull align 4 dereferenceable(4) ptr @_ZN6vectorIjLb0EjEixEj(ptr noundef nonnull align 8 dereferenceable(8) %25, i32 noundef %26)
  %28 = load i32, ptr %27, align 4, !tbaa !73
  %29 = add i32 %28, 1
  store i32 %29, ptr %27, align 4, !tbaa !73
  br label %30

30:                                               ; preds = %24, %13
  ret void
}