; Function Attrs: mustprogress uwtable
define hidden void @_ZN3sat9elim_vars8mark_varEj(ptr noundef nonnull align 8 dereferenceable(808) %0, i32 noundef %1) local_unnamed_addr #3 align 2 {
  %3 = getelementptr inbounds nuw i8, ptr %0, i64 760
  %4 = load ptr, ptr %3, align 8, !tbaa !79
  %5 = zext i32 %1 to i64
  %6 = getelementptr inbounds nuw i32, ptr %4, i64 %5
  %7 = load i32, ptr %6, align 4, !tbaa !80
  %8 = getelementptr inbounds nuw i8, ptr %0, i64 768
  %9 = load i32, ptr %8, align 8, !tbaa !81
  %.not = icmp eq i32 %7, %9
  br i1 %.not, label %30, label %10

10:                                               ; preds = %2
  store i32 %9, ptr %6, align 4, !tbaa !80
  %11 = getelementptr inbounds nuw i8, ptr %0, i64 752
  %12 = load ptr, ptr %11, align 8, !tbaa !79
  %13 = icmp eq ptr %12, null
  br i1 %13, label %20, label %14

14:                                               ; preds = %10
  %15 = getelementptr inbounds i8, ptr %12, i64 -4
  %16 = load i32, ptr %15, align 4, !tbaa !80
  %17 = getelementptr inbounds i8, ptr %12, i64 -8
  %18 = load i32, ptr %17, align 4, !tbaa !80
  %19 = icmp eq i32 %16, %18
  br i1 %19, label %20, label %_ZN6vectorIjLb0EjE9push_backERKj.exit

20:                                               ; preds = %14, %10
  tail call void @_ZN6vectorIjLb0EjE13expand_vectorEv(ptr noundef nonnull align 8 dereferenceable(8) %11)
  %.pre.i = load ptr, ptr %11, align 8, !tbaa !79
  %.phi.trans.insert.i = getelementptr inbounds i8, ptr %.pre.i, i64 -4
  %.pre2.i = load i32, ptr %.phi.trans.insert.i, align 4, !tbaa !80
  br label %_ZN6vectorIjLb0EjE9push_backERKj.exit

_ZN6vectorIjLb0EjE9push_backERKj.exit:            ; preds = %14, %20
  %21 = phi i32 [ %.pre2.i, %20 ], [ %16, %14 ]
  %22 = phi ptr [ %.pre.i, %20 ], [ %12, %14 ]
  %23 = getelementptr inbounds i8, ptr %22, i64 -4
  %24 = zext i32 %21 to i64
  %25 = getelementptr inbounds nuw i32, ptr %22, i64 %24
  store i32 %1, ptr %25, align 4, !tbaa !80
  %26 = add i32 %21, 1
  store i32 %26, ptr %23, align 4, !tbaa !80
  %27 = getelementptr inbounds nuw i8, ptr %0, i64 784
  %28 = load ptr, ptr %27, align 8, !tbaa !79
  %29 = getelementptr inbounds nuw i32, ptr %28, i64 %5
  store i32 1, ptr %29, align 4, !tbaa !80
  br label %36

30:                                               ; preds = %2
  %31 = getelementptr inbounds nuw i8, ptr %0, i64 784
  %32 = load ptr, ptr %31, align 8, !tbaa !79
  %33 = getelementptr inbounds nuw i32, ptr %32, i64 %5
  %34 = load i32, ptr %33, align 4, !tbaa !80
  %35 = add i32 %34, 1
  store i32 %35, ptr %33, align 4, !tbaa !80
  br label %36

36:                                               ; preds = %30, %_ZN6vectorIjLb0EjE9push_backERKj.exit
  ret void
}